; Function Attrs: mustprogress uwtable
define void @_ZN13sentencepiece24ModelProto_SentencePiece12InternalSwapEPS0_(ptr noundef nonnull align 8 dereferenceable(64) %0, ptr noundef %1) local_unnamed_addr #3 align 2 {
  %3 = getelementptr inbounds nuw i8, ptr %0, i64 16
  %4 = getelementptr inbounds nuw i8, ptr %1, i64 16
  tail call void @_ZN6google8protobuf8internal12ExtensionSet4SwapEPS2_(ptr noundef nonnull align 8 dereferenceable(24) %3, ptr noundef nonnull %4)
  %5 = getelementptr inbounds nuw i8, ptr %0, i64 8
  %6 = getelementptr inbounds nuw i8, ptr %1, i64 8
  %7 = load ptr, ptr %5, align 8, !tbaa !3
  %8 = ptrtoint ptr %7 to i64
  %9 = and i64 %8, 1
  %.not = icmp eq i64 %9, 0
  %.pre = load ptr, ptr %6, align 8, !tbaa !3
  %10 = ptrtoint ptr %.pre to i64
  %11 = and i64 %10, 1
  %.not11 = icmp eq i64 %11, 0
  br i1 %.not, label %12, label %13

12:                                               ; preds = %2
  br i1 %.not11, label %_ZN6google8protobuf8internal16InternalMetadata4SwapINSt7__cxx1112basic_stringIcSt11char_traitsIcESaIcEEEEEvPS2_.exit, label %.thread

13:                                               ; preds = %2
  br i1 %.not11, label %17, label %.thread, !prof !144

.thread:                                          ; preds = %12, %13
  %14 = and i64 %10, -2
  %15 = inttoptr i64 %14 to ptr
  %16 = getelementptr inbounds nuw i8, ptr %15, i64 8
  br label %_ZN6google8protobuf8internal16InternalMetadata22mutable_unknown_fieldsINSt7__cxx1112basic_stringIcSt11char_traitsIcESaIcEEEEEPT_v.exit.i

17:                                               ; preds = %13
  %18 = tail call noundef ptr @_ZN6google8protobuf8internal16InternalMetadata27mutable_unknown_fields_slowINSt7__cxx1112basic_stringIcSt11char_traitsIcESaIcEEEEEPT_v(ptr noundef nonnull align 8 dereferenceable(8) %6)
  %.pre13 = load ptr, ptr %5, align 8, !tbaa !3
  %.pre14 = ptrtoint ptr %.pre13 to i64
  br label %_ZN6google8protobuf8internal16InternalMetadata22mutable_unknown_fieldsINSt7__cxx1112basic_stringIcSt11char_traitsIcESaIcEEEEEPT_v.exit.i

_ZN6google8protobuf8internal16InternalMetadata22mutable_unknown_fieldsINSt7__cxx1112basic_stringIcSt11char_traitsIcESaIcEEEEEPT_v.exit.i: ; preds = %17, %.thread
  %.pre-phi = phi i64 [ %.pre14, %17 ], [ %8, %.thread ]
  %.0.i.i = phi ptr [ %18, %17 ], [ %16, %.thread ]
  %19 = and i64 %.pre-phi, 1
  %.not.i = icmp eq i64 %19, 0
  br i1 %.not.i, label %24, label %20, !prof !72

20:                                               ; preds = %_ZN6google8protobuf8internal16InternalMetadata22mutable_unknown_fieldsINSt7__cxx1112basic_stringIcSt11char_traitsIcESaIcEEEEEPT_v.exit.i
  %21 = and i64 %.pre-phi, -2
  %22 = inttoptr i64 %21 to ptr
  %23 = getelementptr inbounds nuw i8, ptr %22, i64 8
  br label %_ZN6google8protobuf8internal16InternalMetadata6DoSwapINSt7__cxx1112basic_stringIcSt11char_traitsIcESaIcEEEEEvPT_.exit

24:                                               ; preds = %_ZN6google8protobuf8internal16InternalMetadata22mutable_unknown_fieldsINSt7__cxx1112basic_stringIcSt11char_traitsIcESaIcEEEEEPT_v.exit.i
  %25 = tail call noundef ptr @_ZN6google8protobuf8internal16InternalMetadata27mutable_unknown_fields_slowINSt7__cxx1112basic_stringIcSt11char_traitsIcESaIcEEEEEPT_v(ptr noundef nonnull align 8 dereferenceable(8) %5)
  br label %_ZN6google8protobuf8internal16InternalMetadata6DoSwapINSt7__cxx1112basic_stringIcSt11char_traitsIcESaIcEEEEEvPT_.exit

_ZN6google8protobuf8internal16InternalMetadata6DoSwapINSt7__cxx1112basic_stringIcSt11char_traitsIcESaIcEEEEEvPT_.exit: ; preds = %20, %24
  %.0.i.i8 = phi ptr [ %23, %20 ], [ %25, %24 ]
  tail call void @_ZNSt7__cxx1112basic_stringIcSt11char_traitsIcESaIcEE4swapERS4_(ptr noundef nonnull align 8 dereferenceable(32) %.0.i.i8, ptr noundef nonnull align 8 dereferenceable(32) %.0.i.i) #25
  br label %_ZN6google8protobuf8internal16InternalMetadata4SwapINSt7__cxx1112basic_stringIcSt11char_traitsIcESaIcEEEEEvPS2_.exit

_ZN6google8protobuf8internal16InternalMetadata4SwapINSt7__cxx1112basic_stringIcSt11char_traitsIcESaIcEEEEEvPS2_.exit: ; preds = %12, %_ZN6google8protobuf8internal16InternalMetadata6DoSwapINSt7__cxx1112basic_stringIcSt11char_traitsIcESaIcEEEEEvPT_.exit
  %26 = getelementptr inbounds nuw i8, ptr %0, i64 40
  %27 = getelementptr inbounds nuw i8, ptr %1, i64 40
  %28 = load i32, ptr %26, align 8, !tbaa !11
  %29 = load i32, ptr %27, align 4, !tbaa !11
  store i32 %29, ptr %26, align 8, !tbaa !11
  store i32 %28, ptr %27, align 4, !tbaa !11
  %30 = getelementptr inbounds nuw i8, ptr %1, i64 48
  %31 = getelementptr inbounds nuw i8, ptr %0, i64 48
  %.sroa.0.0.copyload.i = load ptr, ptr %31, align 8, !tbaa !75
  %32 = load i64, ptr %30, align 8, !tbaa !75
  store i64 %32, ptr %31, align 8, !tbaa !75
  store ptr %.sroa.0.0.copyload.i, ptr %30, align 8, !tbaa !75
  %33 = getelementptr inbounds nuw i8, ptr %0, i64 56
  %34 = getelementptr inbounds nuw i8, ptr %1, i64 56
  %35 = load float, ptr %33, align 8, !tbaa !145
  %36 = load float, ptr %34, align 4, !tbaa !145
  store float %36, ptr %33, align 8, !tbaa !145
  store float %35, ptr %34, align 4, !tbaa !145
  %37 = getelementptr inbounds nuw i8, ptr %0, i64 60
  %38 = getelementptr inbounds nuw i8, ptr %1, i64 60
  %39 = load i32, ptr %37, align 4, !tbaa !11
  %40 = load i32, ptr %38, align 4, !tbaa !11
  store i32 %40, ptr %37, align 4, !tbaa !11
  store i32 %39, ptr %38, align 4, !tbaa !11
  ret void
}